#include <math.h>
#include <stdio.h>
#include <stdlib.h>
#include <string.h>

void main()
{
	char s[3000];
	int len[300]={0};
	int i,j=0;
	int n;
    
	gets(s);
	n=strlen(s);

	for(i=0;i<n;i++)
	{
		if(s[i]!=' ')
			len[j]++;
		if(s[i]==' '&&s[i-1]!=' ')
			j++;
	}

	printf("%d",len[0]);
	for(i=1;i<=j;i++)
		printf(",%d",len[i]);

	printf("\n");
}